; Function Attrs: mustprogress nofree norecurse nosync nounwind willreturn memory(read, inaccessiblemem: none) uwtable
define noundef nonnull ptr @_ZN10OpenSubdiv6v3_6_03Far10PatchTable18getSharpnessValuesEi(ptr nocapture noundef nonnull readonly align 8 dereferenceable(273) %0, i32 noundef %1) local_unnamed_addr #6 align 2 {
  %3 = getelementptr inbounds nuw i8, ptr %0, i64 248
  %4 = getelementptr inbounds nuw i8, ptr %0, i64 8
  %5 = sext i32 %1 to i64
  %6 = load ptr, ptr %4, align 8
  %7 = getelementptr inbounds %"struct.OpenSubdiv::v3_6_0::Far::PatchTable::PatchArray", ptr %6, i64 %5, i32 3
  %8 = load i32, ptr %7, align 4
  %9 = sext i32 %8 to i64
  %10 = load ptr, ptr %3, align 8
  %11 = getelementptr inbounds float, ptr %10, i64 %9
  ret ptr %11
}